; Function Attrs: cold nounwind optsize uwtable
define internal noundef i32 @mpc7_decode_close(ptr noundef readonly captures(none) %0) #0 {
  %2 = getelementptr inbounds nuw i8, ptr %0, i64 32
  %3 = load ptr, ptr %2, align 8, !tbaa !4
  %4 = getelementptr inbounds nuw i8, ptr %3, i64 11240
  tail call void @av_freep(ptr noundef nonnull %4) #8
  %5 = getelementptr inbounds nuw i8, ptr %3, i64 11248
  store i32 0, ptr %5, align 16, !tbaa !74
  ret i32 0
}